; Function Attrs: mustprogress nounwind uwtable
define dso_local void @_ZN2EA4StdC8CallbackD0Ev(ptr noundef nonnull align 8 dereferenceable(80) %this) unnamed_addr #2 align 2 personality ptr @__gxx_personality_v0 {
entry:
  store ptr getelementptr inbounds ({ [4 x ptr] }, ptr @_ZTVN2EA4StdC8CallbackE, i64 0, i32 0, i64 2), ptr %this, align 8
  %mbStarted.i = getelementptr inbounds i8, ptr %this, i64 52
  %0 = load atomic i32, ptr %mbStarted.i seq_cst, align 4
  %tobool.not.i = icmp eq i32 %0, 0
  br i1 %tobool.not.i, label %_ZN2EA4StdC8CallbackD2Ev.exit, label %if.then.i

if.then.i:                                        ; preds = %entry
  %1 = load atomic i32, ptr %mbStarted.i seq_cst, align 4
  %tobool.not.i.i = icmp eq i32 %1, 0
  br i1 %tobool.not.i.i, label %_ZN2EA4StdC8CallbackD2Ev.exit, label %if.then.i.i

if.then.i.i:                                      ; preds = %if.then.i
  %mpCallbackManager.i.i = getelementptr inbounds i8, ptr %this, i64 24
  %2 = load ptr, ptr %mpCallbackManager.i.i, align 8
  %vtable.i.i = load ptr, ptr %2, align 8
  %vfn.i.i = getelementptr inbounds i8, ptr %vtable.i.i, i64 48
  %3 = load ptr, ptr %vfn.i.i, align 8
  %call2.i1.i = invoke noundef zeroext i1 %3(ptr noundef nonnull align 8 dereferenceable(8) %2, ptr noundef nonnull %this)
          to label %call2.i.noexc.i unwind label %terminate.lpad.i

call2.i.noexc.i:                                  ; preds = %if.then.i.i
  store atomic i32 0, ptr %mbStarted.i seq_cst, align 4
  %mbEnableRefCount.i.i = getelementptr inbounds i8, ptr %this, i64 57
  %4 = load i8, ptr %mbEnableRefCount.i.i, align 1
  %5 = and i8 %4, 1
  %tobool5.not.i.i = icmp eq i8 %5, 0
  br i1 %tobool5.not.i.i, label %_ZN2EA4StdC8CallbackD2Ev.exit, label %if.then6.i.i

if.then6.i.i:                                     ; preds = %call2.i.noexc.i
  %mpFunction.i.i.i.i = getelementptr inbounds i8, ptr %this, i64 32
  %6 = load ptr, ptr %mpFunction.i.i.i.i, align 8
  %tobool.not.i.i.i.i = icmp eq ptr %6, null
  br i1 %tobool.not.i.i.i.i, label %_ZN2EA4StdC8CallbackD2Ev.exit, label %if.then.i.i.i.i

if.then.i.i.i.i:                                  ; preds = %if.then6.i.i
  %mpFunctionArg.i.i.i.i = getelementptr inbounds i8, ptr %this, i64 40
  %7 = load ptr, ptr %mpFunctionArg.i.i.i.i, align 8
  invoke void %6(ptr noundef nonnull %this, ptr noundef %7, i64 noundef 1, i64 noundef 0)
          to label %_ZN2EA4StdC8CallbackD2Ev.exit unwind label %terminate.lpad.i

terminate.lpad.i:                                 ; preds = %if.then.i.i.i.i, %if.then.i.i
  %8 = landingpad { ptr, i32 }
          catch ptr null
  %9 = extractvalue { ptr, i32 } %8, 0
  tail call void @__clang_call_terminate(ptr %9) #18
  unreachable

_ZN2EA4StdC8CallbackD2Ev.exit:                    ; preds = %entry, %if.then.i, %call2.i.noexc.i, %if.then6.i.i, %if.then.i.i.i.i
  tail call void @_ZdlPv(ptr noundef nonnull %this) #19
  ret void
}